target datalayout = "e-m:e-p270:32:32-p271:32:32-p272:64:64-i64:64-i128:128-f80:128-n8:16:32:64-S128"
target triple = "x86_64-pc-linux-gnu"

%struct.anon = type { ptr, ptr, ptr, ptr, ptr }
%struct.CvSize = type { i32, i32 }

@_ZL5CvIPL = internal global %struct.anon zeroinitializer, align 8
@.str.4 = private unnamed_addr constant [1 x i8] zeroinitializer, align 1
@_ZZL16icvGetColorModeliPPKcS1_E3tab = internal global [4 x [2 x ptr]] [[2 x ptr] [ptr @.str.96, ptr @.str.96], [2 x ptr] [ptr @.str.4, ptr @.str.4], [2 x ptr] [ptr @.str.97, ptr @.str.98], [2 x ptr] [ptr @.str.97, ptr @.str.99]], align 16

; Function Attrs: mustprogress nounwind uwtable
define internal void @_ZL16icvGetColorModeliPPKcS1_(i32 noundef %0, ptr noundef %1, ptr noundef %2) #3 {
  %4 = alloca i32, align 4
  %5 = alloca ptr, align 8
  %6 = alloca ptr, align 8
  store i32 %0, ptr %4, align 4, !tbaa !7
  store ptr %1, ptr %5, align 8, !tbaa !129
  store ptr %2, ptr %6, align 8, !tbaa !129
  %7 = load i32, ptr %4, align 4, !tbaa !7
  %8 = add nsw i32 %7, -1
  store i32 %8, ptr %4, align 4, !tbaa !7
  %9 = load ptr, ptr %6, align 8, !tbaa !129
  store ptr @.str.4, ptr %9, align 8, !tbaa !19
  %10 = load ptr, ptr %5, align 8, !tbaa !129
  store ptr @.str.4, ptr %10, align 8, !tbaa !19
  %11 = load i32, ptr %4, align 4, !tbaa !7
  %12 = icmp ule i32 %11, 3
  br i1 %12, label %13, label %26

13:                                               ; preds = %3
  %14 = load i32, ptr %4, align 4, !tbaa !7
  %15 = sext i32 %14 to i64
  %16 = getelementptr inbounds [4 x [2 x ptr]], ptr @_ZZL16icvGetColorModeliPPKcS1_E3tab, i64 0, i64 %15
  %17 = getelementptr inbounds [2 x ptr], ptr %16, i64 0, i64 0
  %18 = load ptr, ptr %17, align 16, !tbaa !19
  %19 = load ptr, ptr %5, align 8, !tbaa !129
  store ptr %18, ptr %19, align 8, !tbaa !19
  %20 = load i32, ptr %4, align 4, !tbaa !7
  %21 = sext i32 %20 to i64
  %22 = getelementptr inbounds [4 x [2 x ptr]], ptr @_ZZL16icvGetColorModeliPPKcS1_E3tab, i64 0, i64 %21
  %23 = getelementptr inbounds [2 x ptr], ptr %22, i64 0, i64 1
  %24 = load ptr, ptr %23, align 8, !tbaa !19
  %25 = load ptr, ptr %6, align 8, !tbaa !129
  store ptr %24, ptr %25, align 8, !tbaa !19
  br label %26

26:                                               ; preds = %13, %3
  ret void
}

; Function Attrs: mustprogress uwtable
define ptr @cvCreateImageHeader(i64 %0, i32 noundef %1, i32 noundef %2) #0 {
  %4 = alloca %struct.CvSize, align 4
  %5 = alloca i32, align 4
  %6 = alloca i32, align 4
  %7 = alloca ptr, align 8
  %8 = alloca %struct.CvSize, align 4
  %9 = alloca ptr, align 8
  %10 = alloca ptr, align 8
  store i64 %0, ptr %4, align 4
  store i32 %1, ptr %5, align 4, !tbaa !7
  store i32 %2, ptr %6, align 4, !tbaa !7
  call void @llvm.lifetime.start.p0(i64 8, ptr %7) #16
  store ptr null, ptr %7, align 8, !tbaa !37
  %11 = load ptr, ptr @_ZL5CvIPL, align 8, !tbaa !9
  %12 = icmp ne ptr %11, null
  br i1 %12, label %20, label %13

13:                                               ; preds = %3
  %14 = call ptr @cvAlloc(i64 noundef 144)
  store ptr %14, ptr %7, align 8, !tbaa !37
  %15 = load ptr, ptr %7, align 8, !tbaa !37
  call void @llvm.memcpy.p0.p0.i64(ptr align 4 %8, ptr align 4 %4, i64 8, i1 false), !tbaa.struct !87
  %16 = load i32, ptr %5, align 4, !tbaa !7
  %17 = load i32, ptr %6, align 4, !tbaa !7
  %18 = load i64, ptr %8, align 4
  %19 = call ptr @cvInitImageHeader(ptr noundef %15, i64 %18, i32 noundef %16, i32 noundef %17, i32 noundef 0, i32 noundef 4)
  br label %32

20:                                               ; preds = %3
  call void @llvm.lifetime.start.p0(i64 8, ptr %9) #16
  call void @llvm.lifetime.start.p0(i64 8, ptr %10) #16
  %21 = load i32, ptr %6, align 4, !tbaa !7
  call void @_ZL16icvGetColorModeliPPKcS1_(i32 noundef %21, ptr noundef %9, ptr noundef %10)
  %22 = load ptr, ptr @_ZL5CvIPL, align 8, !tbaa !9
  %23 = load i32, ptr %6, align 4, !tbaa !7
  %24 = load i32, ptr %5, align 4, !tbaa !7
  %25 = load ptr, ptr %9, align 8, !tbaa !19
  %26 = load ptr, ptr %10, align 8, !tbaa !19
  %27 = getelementptr inbounds nuw %struct.CvSize, ptr %4, i32 0, i32 0
  %28 = load i32, ptr %27, align 4, !tbaa !89
  %29 = getelementptr inbounds nuw %struct.CvSize, ptr %4, i32 0, i32 1
  %30 = load i32, ptr %29, align 4, !tbaa !90
  %31 = call noundef ptr %22(i32 noundef %23, i32 noundef 0, i32 noundef %24, ptr noundef %25, ptr noundef %26, i32 noundef 0, i32 noundef 0, i32 noundef 4, i32 noundef %28, i32 noundef %30, ptr noundef null, ptr noundef null, ptr noundef null, ptr noundef null)
  store ptr %31, ptr %7, align 8, !tbaa !37
  call void @llvm.lifetime.end.p0(i64 8, ptr %10) #16
  call void @llvm.lifetime.end.p0(i64 8, ptr %9) #16
  br label %32

32:                                               ; preds = %20, %13
  %33 = load ptr, ptr %7, align 8, !tbaa !37
  call void @llvm.lifetime.end.p0(i64 8, ptr %7) #16
  ret ptr %33
}