; Function Attrs: mustprogress uwtable
define noundef ptr @cvCreateImageHeader(i64 %0, i32 noundef %1, i32 noundef %2) local_unnamed_addr #0 {
  %4 = load ptr, ptr @_ZL5CvIPL.0, align 8, !tbaa !12
  %.not = icmp eq ptr %4, null
  br i1 %.not, label %5, label %8

5:                                                ; preds = %3
  %6 = tail call ptr @cvAlloc(i64 noundef 144)
  %7 = tail call ptr @cvInitImageHeader(ptr noundef %6, i64 %0, i32 noundef %1, i32 noundef %2, i32 noundef 0, i32 noundef 4)
  br label %18

8:                                                ; preds = %3
  %.sroa.06.0.extract.trunc = trunc i64 %0 to i32
  %.sroa.3.0.extract.shift = lshr i64 %0, 32
  %.sroa.3.0.extract.trunc = trunc nuw i64 %.sroa.3.0.extract.shift to i32
  %9 = add nsw i32 %2, -1
  %10 = icmp ult i32 %9, 4
  br i1 %10, label %11, label %_ZL16icvGetColorModeliPPKcS1_.exit

11:                                               ; preds = %8
  %12 = zext nneg i32 %9 to i64
  %13 = getelementptr inbounds nuw [4 x [2 x ptr]], ptr @_ZZL16icvGetColorModeliPPKcS1_E3tab, i64 0, i64 %12
  %14 = load ptr, ptr %13, align 16, !tbaa !68
  %15 = getelementptr inbounds nuw i8, ptr %13, i64 8
  %16 = load ptr, ptr %15, align 8, !tbaa !68
  br label %_ZL16icvGetColorModeliPPKcS1_.exit

_ZL16icvGetColorModeliPPKcS1_.exit:               ; preds = %8, %11
  %.09 = phi ptr [ %14, %11 ], [ @.str.4, %8 ]
  %.08 = phi ptr [ %16, %11 ], [ @.str.4, %8 ]
  %17 = tail call noundef ptr %4(i32 noundef %2, i32 noundef 0, i32 noundef %1, ptr noundef %.09, ptr noundef %.08, i32 noundef 0, i32 noundef 0, i32 noundef 4, i32 noundef %.sroa.06.0.extract.trunc, i32 noundef %.sroa.3.0.extract.trunc, ptr noundef null, ptr noundef null, ptr noundef null, ptr noundef null)
  br label %18

18:                                               ; preds = %_ZL16icvGetColorModeliPPKcS1_.exit, %5
  %.0 = phi ptr [ %17, %_ZL16icvGetColorModeliPPKcS1_.exit ], [ %6, %5 ]
  ret ptr %.0
}